target datalayout = "e-m:e-p270:32:32-p271:32:32-p272:64:64-i64:64-i128:128-f80:128-n8:16:32:64-S128"
target triple = "x86_64-pc-linux-gnu"

%struct.PaUtilHostApiRepresentation = type { %struct.PaUtilPrivatePaFrontHostApiInfo, %struct.PaHostApiInfo, ptr, ptr, ptr, ptr }
%struct.PaUtilPrivatePaFrontHostApiInfo = type { i64 }
%struct.PaHostApiInfo = type { i32, i32, ptr, i32, i32, i32 }

@initializationCount_ = internal global i32 0, align 4
@hostApisCount_ = internal global i32 0, align 4
@hostApis_ = internal global ptr null, align 8

; Function Attrs: nounwind uwtable
define ptr @Pa_GetHostApiInfo(i32 noundef %0) #0 {
  %2 = alloca i32, align 4
  %3 = alloca ptr, align 8
  store i32 %0, ptr %2, align 4
  %4 = load i32, ptr @initializationCount_, align 4
  %5 = icmp ne i32 %4, 0
  br i1 %5, label %7, label %6

6:                                                ; preds = %1
  store ptr null, ptr %3, align 8
  br label %23

7:                                                ; preds = %1
  %8 = load i32, ptr %2, align 4
  %9 = icmp slt i32 %8, 0
  br i1 %9, label %14, label %10

10:                                               ; preds = %7
  %11 = load i32, ptr %2, align 4
  %12 = load i32, ptr @hostApisCount_, align 4
  %13 = icmp sge i32 %11, %12
  br i1 %13, label %14, label %15

14:                                               ; preds = %10, %7
  store ptr null, ptr %3, align 8
  br label %22

15:                                               ; preds = %10
  %16 = load ptr, ptr @hostApis_, align 8
  %17 = load i32, ptr %2, align 4
  %18 = sext i32 %17 to i64
  %19 = getelementptr inbounds ptr, ptr %16, i64 %18
  %20 = load ptr, ptr %19, align 8
  %21 = getelementptr inbounds nuw %struct.PaUtilHostApiRepresentation, ptr %20, i32 0, i32 1
  store ptr %21, ptr %3, align 8
  br label %22

22:                                               ; preds = %15, %14
  br label %23

23:                                               ; preds = %22, %6
  %24 = load ptr, ptr %3, align 8
  ret ptr %24
}