; Function Attrs: mustprogress nofree norecurse nosync nounwind willreturn memory(read, inaccessiblemem: none) uwtable
define ptr @Pa_GetHostApiInfo(i32 noundef %0) local_unnamed_addr #9 {
  %2 = load i32, ptr @initializationCount_, align 4
  %.not = icmp eq i32 %2, 0
  br i1 %.not, label %12, label %3

3:                                                ; preds = %1
  %4 = icmp sgt i32 %0, -1
  %5 = load i32, ptr @hostApisCount_, align 4
  %.not4 = icmp slt i32 %0, %5
  %or.cond = select i1 %4, i1 %.not4, i1 false
  br i1 %or.cond, label %6, label %12

6:                                                ; preds = %3
  %7 = load ptr, ptr @hostApis_, align 8
  %8 = zext nneg i32 %0 to i64
  %9 = getelementptr inbounds ptr, ptr %7, i64 %8
  %10 = load ptr, ptr %9, align 8
  %11 = getelementptr inbounds nuw i8, ptr %10, i64 8
  br label %12

12:                                               ; preds = %3, %1, %6
  %.0 = phi ptr [ %11, %6 ], [ null, %1 ], [ null, %3 ]
  ret ptr %.0
}